; ModuleID = '22/222.c'
source_filename = "22/222.c"
target datalayout = "e-m:e-p270:32:32-p271:32:32-p272:64:64-i64:64-f80:128-n8:16:32:64-S128"
target triple = "x86_64-pc-linux-gnu"

@.str = private unnamed_addr constant [3 x i8] c"%d\00", align 1
@.str.1 = private unnamed_addr constant [3 x i8] c"No\00", align 1

; Function Attrs: noinline nounwind uwtable
define dso_local void @main() #0 {
  %1 = alloca i32, align 4
  %2 = alloca [200 x i32], align 16
  %3 = alloca i32, align 4
  %4 = alloca i32, align 4
  %5 = alloca i32, align 4
  store i32 0, i32* %3, align 4
  br label %6

6:                                                ; preds = %13, %0
  %7 = load i32, i32* %3, align 4
  %8 = sext i32 %7 to i64
  %9 = getelementptr inbounds [200 x i32], [200 x i32]* %2, i64 0, i64 %8
  %10 = call i32 (i8*, ...) @__isoc99_scanf(i8* getelementptr inbounds ([3 x i8], [3 x i8]* @.str, i64 0, i64 0), i32* %9)
  %11 = load i32, i32* %3, align 4
  %12 = add nsw i32 %11, 1
  store i32 %12, i32* %3, align 4
  br label %13

13:                                               ; preds = %6
  %14 = call i32 @getchar()
  %15 = icmp ne i32 %14, 10
  br i1 %15, label %6, label %16

16:                                               ; preds = %13
  %17 = load i32, i32* %3, align 4
  store i32 %17, i32* %5, align 4
  store i32 0, i32* %4, align 4
  br label %18

18:                                               ; preds = %63, %16
  %19 = load i32, i32* %4, align 4
  %20 = load i32, i32* %5, align 4
  %21 = icmp slt i32 %19, %20
  br i1 %21, label %22, label %66

22:                                               ; preds = %18
  store i32 0, i32* %3, align 4
  br label %23

23:                                               ; preds = %59, %22
  %24 = load i32, i32* %3, align 4
  %25 = load i32, i32* %5, align 4
  %26 = load i32, i32* %4, align 4
  %27 = sub nsw i32 %25, %26
  %28 = icmp slt i32 %24, %27
  br i1 %28, label %29, label %62

29:                                               ; preds = %23
  %30 = load i32, i32* %3, align 4
  %31 = sext i32 %30 to i64
  %32 = getelementptr inbounds [200 x i32], [200 x i32]* %2, i64 0, i64 %31
  %33 = load i32, i32* %32, align 4
  %34 = load i32, i32* %3, align 4
  %35 = add nsw i32 %34, 1
  %36 = sext i32 %35 to i64
  %37 = getelementptr inbounds [200 x i32], [200 x i32]* %2, i64 0, i64 %36
  %38 = load i32, i32* %37, align 4
  %39 = icmp slt i32 %33, %38
  br i1 %39, label %40, label %58

40:                                               ; preds = %29
  %41 = load i32, i32* %3, align 4
  %42 = sext i32 %41 to i64
  %43 = getelementptr inbounds [200 x i32], [200 x i32]* %2, i64 0, i64 %42
  %44 = load i32, i32* %43, align 4
  store i32 %44, i32* %1, align 4
  %45 = load i32, i32* %3, align 4
  %46 = add nsw i32 %45, 1
  %47 = sext i32 %46 to i64
  %48 = getelementptr inbounds [200 x i32], [200 x i32]* %2, i64 0, i64 %47
  %49 = load i32, i32* %48, align 4
  %50 = load i32, i32* %3, align 4
  %51 = sext i32 %50 to i64
  %52 = getelementptr inbounds [200 x i32], [200 x i32]* %2, i64 0, i64 %51
  store i32 %49, i32* %52, align 4
  %53 = load i32, i32* %1, align 4
  %54 = load i32, i32* %3, align 4
  %55 = add nsw i32 %54, 1
  %56 = sext i32 %55 to i64
  %57 = getelementptr inbounds [200 x i32], [200 x i32]* %2, i64 0, i64 %56
  store i32 %53, i32* %57, align 4
  br label %58

58:                                               ; preds = %40, %29
  br label %59

59:                                               ; preds = %58
  %60 = load i32, i32* %3, align 4
  %61 = add nsw i32 %60, 1
  store i32 %61, i32* %3, align 4
  br label %23

62:                                               ; preds = %23
  br label %63

63:                                               ; preds = %62
  %64 = load i32, i32* %4, align 4
  %65 = add nsw i32 %64, 1
  store i32 %65, i32* %4, align 4
  br label %18

66:                                               ; preds = %18
  %67 = getelementptr inbounds [200 x i32], [200 x i32]* %2, i64 0, i64 0
  %68 = load i32, i32* %67, align 16
  store i32 %68, i32* %1, align 4
  store i32 0, i32* %3, align 4
  br label %69

69:                                               ; preds = %82, %66
  %70 = load i32, i32* %3, align 4
  %71 = load i32, i32* %5, align 4
  %72 = icmp slt i32 %70, %71
  br i1 %72, label %73, label %85

73:                                               ; preds = %69
  %74 = load i32, i32* %3, align 4
  %75 = sext i32 %74 to i64
  %76 = getelementptr inbounds [200 x i32], [200 x i32]* %2, i64 0, i64 %75
  %77 = load i32, i32* %76, align 4
  %78 = load i32, i32* %1, align 4
  %79 = icmp slt i32 %77, %78
  br i1 %79, label %80, label %81

80:                                               ; preds = %73
  br label %85

81:                                               ; preds = %73
  br label %82

82:                                               ; preds = %81
  %83 = load i32, i32* %3, align 4
  %84 = add nsw i32 %83, 1
  store i32 %84, i32* %3, align 4
  br label %69

85:                                               ; preds = %80, %69
  %86 = load i32, i32* %3, align 4
  %87 = load i32, i32* %5, align 4
  %88 = icmp eq i32 %86, %87
  br i1 %88, label %89, label %91

89:                                               ; preds = %85
  %90 = call i32 @puts(i8* getelementptr inbounds ([3 x i8], [3 x i8]* @.str.1, i64 0, i64 0))
  br label %91

91:                                               ; preds = %89, %85
  %92 = load i32, i32* %3, align 4
  %93 = load i32, i32* %5, align 4
  %94 = icmp slt i32 %92, %93
  br i1 %94, label %95, label %101

95:                                               ; preds = %91
  %96 = load i32, i32* %3, align 4
  %97 = sext i32 %96 to i64
  %98 = getelementptr inbounds [200 x i32], [200 x i32]* %2, i64 0, i64 %97
  %99 = load i32, i32* %98, align 4
  %100 = call i32 (i8*, ...) @printf(i8* getelementptr inbounds ([3 x i8], [3 x i8]* @.str, i64 0, i64 0), i32 %99)
  br label %101

101:                                              ; preds = %95, %91
  ret void
}

declare dso_local i32 @__isoc99_scanf(i8*, ...) #1

declare dso_local i32 @getchar() #1

declare dso_local i32 @puts(i8*) #1

declare dso_local i32 @printf(i8*, ...) #1


!llvm.module.flags = !{!0}
!llvm.ident = !{!1}

!0 = !{i32 1, !"wchar_size", i32 4}
!1 = !{!"clang version 10.0.0-4ubuntu1 "}
